target datalayout = "e-m:e-p270:32:32-p271:32:32-p272:64:64-i64:64-i128:128-f80:128-n8:16:32:64-S128"
target triple = "x86_64-pc-linux-gnu"

%struct.GLNVGcontext = type { %struct.GLNVGshader, ptr, [2 x float], i32, i32, i32, i32, i32, i32, i32, i32, ptr, i32, i32, ptr, i32, i32, ptr, i32, i32, ptr, i32, i32, i32, i32, i32, i32, i32, %struct.GLNVGblend }
%struct.GLNVGshader = type { i32, i32, i32, [3 x i32] }
%struct.GLNVGblend = type { i32, i32, i32, i32 }
%struct.GLNVGtexture = type { i32, i32, i32, i32, i32, i32 }

@.str.18 = private unnamed_addr constant [21 x i8] c"Error %08x after %s\0A\00", align 1
@.str.28 = private unnamed_addr constant [11 x i8] c"create tex\00", align 1

; Function Attrs: mustprogress nounwind uwtable
define internal noundef i32 @_ZL11glnvg__maxiii(i32 noundef %0, i32 noundef %1) #7 {
  %3 = alloca i32, align 4
  %4 = alloca i32, align 4
  store i32 %0, ptr %3, align 4
  store i32 %1, ptr %4, align 4
  %5 = load i32, ptr %3, align 4
  %6 = load i32, ptr %4, align 4
  %7 = icmp sgt i32 %5, %6
  br i1 %7, label %8, label %10

8:                                                ; preds = %2
  %9 = load i32, ptr %3, align 4
  br label %12

10:                                               ; preds = %2
  %11 = load i32, ptr %4, align 4
  br label %12

12:                                               ; preds = %10, %8
  %13 = phi i32 [ %9, %8 ], [ %11, %10 ]
  ret i32 %13
}

; Function Attrs: mustprogress uwtable
define internal void @_ZL17glnvg__checkErrorP12GLNVGcontextPKc(ptr noundef %0, ptr noundef %1) #4 {
  %3 = alloca ptr, align 8
  %4 = alloca ptr, align 8
  %5 = alloca i32, align 4
  store ptr %0, ptr %3, align 8
  store ptr %1, ptr %4, align 8
  %6 = load ptr, ptr %3, align 8
  %7 = getelementptr inbounds %struct.GLNVGcontext, ptr %6, i32 0, i32 10
  %8 = load i32, ptr %7, align 4
  %9 = and i32 %8, 4
  %10 = icmp eq i32 %9, 0
  br i1 %10, label %11, label %12

11:                                               ; preds = %2
  br label %20

12:                                               ; preds = %2
  %13 = call i32 @glGetError()
  store i32 %13, ptr %5, align 4
  %14 = load i32, ptr %5, align 4
  %15 = icmp ne i32 %14, 0
  br i1 %15, label %16, label %20

16:                                               ; preds = %12
  %17 = load i32, ptr %5, align 4
  %18 = load ptr, ptr %4, align 8
  %19 = call i32 (ptr, ...) @printf(ptr noundef @.str.18, i32 noundef %17, ptr noundef %18)
  br label %20

20:                                               ; preds = %16, %12, %11
  ret void
}

; Function Attrs: mustprogress uwtable
define internal void @_ZL18glnvg__bindTextureP12GLNVGcontextj(ptr noundef %0, i32 noundef %1) #4 {
  %3 = alloca ptr, align 8
  %4 = alloca i32, align 4
  store ptr %0, ptr %3, align 8
  store i32 %1, ptr %4, align 4
  %5 = load ptr, ptr %3, align 8
  %6 = getelementptr inbounds %struct.GLNVGcontext, ptr %5, i32 0, i32 23
  %7 = load i32, ptr %6, align 8
  %8 = load i32, ptr %4, align 4
  %9 = icmp ne i32 %7, %8
  br i1 %9, label %10, label %15

10:                                               ; preds = %2
  %11 = load i32, ptr %4, align 4
  %12 = load ptr, ptr %3, align 8
  %13 = getelementptr inbounds %struct.GLNVGcontext, ptr %12, i32 0, i32 23
  store i32 %11, ptr %13, align 8
  %14 = load i32, ptr %4, align 4
  call void @glBindTexture(i32 noundef 3553, i32 noundef %14)
  br label %15

15:                                               ; preds = %10, %2
  ret void
}

; Function Attrs: mustprogress nounwind uwtable
define internal noundef ptr @_ZL19glnvg__allocTextureP12GLNVGcontext(ptr noundef %0) #7 {
  %2 = alloca ptr, align 8
  %3 = alloca ptr, align 8
  %4 = alloca ptr, align 8
  %5 = alloca i32, align 4
  %6 = alloca ptr, align 8
  %7 = alloca i32, align 4
  store ptr %0, ptr %3, align 8
  store ptr null, ptr %4, align 8
  store i32 0, ptr %5, align 4
  br label %8

8:                                                ; preds = %32, %1
  %9 = load i32, ptr %5, align 4
  %10 = load ptr, ptr %3, align 8
  %11 = getelementptr inbounds %struct.GLNVGcontext, ptr %10, i32 0, i32 3
  %12 = load i32, ptr %11, align 8
  %13 = icmp slt i32 %9, %12
  br i1 %13, label %14, label %35

14:                                               ; preds = %8
  %15 = load ptr, ptr %3, align 8
  %16 = getelementptr inbounds %struct.GLNVGcontext, ptr %15, i32 0, i32 1
  %17 = load ptr, ptr %16, align 8
  %18 = load i32, ptr %5, align 4
  %19 = sext i32 %18 to i64
  %20 = getelementptr inbounds %struct.GLNVGtexture, ptr %17, i64 %19
  %21 = getelementptr inbounds %struct.GLNVGtexture, ptr %20, i32 0, i32 0
  %22 = load i32, ptr %21, align 4
  %23 = icmp eq i32 %22, 0
  br i1 %23, label %24, label %31

24:                                               ; preds = %14
  %25 = load ptr, ptr %3, align 8
  %26 = getelementptr inbounds %struct.GLNVGcontext, ptr %25, i32 0, i32 1
  %27 = load ptr, ptr %26, align 8
  %28 = load i32, ptr %5, align 4
  %29 = sext i32 %28 to i64
  %30 = getelementptr inbounds %struct.GLNVGtexture, ptr %27, i64 %29
  store ptr %30, ptr %4, align 8
  br label %35

31:                                               ; preds = %14
  br label %32

32:                                               ; preds = %31
  %33 = load i32, ptr %5, align 4
  %34 = add nsw i32 %33, 1
  store i32 %34, ptr %5, align 4
  br label %8, !llvm.loop !10

35:                                               ; preds = %24, %8
  %36 = load ptr, ptr %4, align 8
  %37 = icmp eq ptr %36, null
  br i1 %37, label %38, label %85

38:                                               ; preds = %35
  %39 = load ptr, ptr %3, align 8
  %40 = getelementptr inbounds %struct.GLNVGcontext, ptr %39, i32 0, i32 3
  %41 = load i32, ptr %40, align 8
  %42 = add nsw i32 %41, 1
  %43 = load ptr, ptr %3, align 8
  %44 = getelementptr inbounds %struct.GLNVGcontext, ptr %43, i32 0, i32 4
  %45 = load i32, ptr %44, align 4
  %46 = icmp sgt i32 %42, %45
  br i1 %46, label %47, label %75

47:                                               ; preds = %38
  %48 = load ptr, ptr %3, align 8
  %49 = getelementptr inbounds %struct.GLNVGcontext, ptr %48, i32 0, i32 3
  %50 = load i32, ptr %49, align 8
  %51 = add nsw i32 %50, 1
  %52 = call noundef i32 @_ZL11glnvg__maxiii(i32 noundef %51, i32 noundef 4)
  %53 = load ptr, ptr %3, align 8
  %54 = getelementptr inbounds %struct.GLNVGcontext, ptr %53, i32 0, i32 4
  %55 = load i32, ptr %54, align 4
  %56 = sdiv i32 %55, 2
  %57 = add nsw i32 %52, %56
  store i32 %57, ptr %7, align 4
  %58 = load ptr, ptr %3, align 8
  %59 = getelementptr inbounds %struct.GLNVGcontext, ptr %58, i32 0, i32 1
  %60 = load ptr, ptr %59, align 8
  %61 = load i32, ptr %7, align 4
  %62 = sext i32 %61 to i64
  %63 = mul i64 24, %62
  %64 = call ptr @realloc(ptr noundef %60, i64 noundef %63) #22
  store ptr %64, ptr %6, align 8
  %65 = load ptr, ptr %6, align 8
  %66 = icmp eq ptr %65, null
  br i1 %66, label %67, label %68

67:                                               ; preds = %47
  store ptr null, ptr %2, align 8
  br label %94

68:                                               ; preds = %47
  %69 = load ptr, ptr %6, align 8
  %70 = load ptr, ptr %3, align 8
  %71 = getelementptr inbounds %struct.GLNVGcontext, ptr %70, i32 0, i32 1
  store ptr %69, ptr %71, align 8
  %72 = load i32, ptr %7, align 4
  %73 = load ptr, ptr %3, align 8
  %74 = getelementptr inbounds %struct.GLNVGcontext, ptr %73, i32 0, i32 4
  store i32 %72, ptr %74, align 4
  br label %75

75:                                               ; preds = %68, %38
  %76 = load ptr, ptr %3, align 8
  %77 = getelementptr inbounds %struct.GLNVGcontext, ptr %76, i32 0, i32 1
  %78 = load ptr, ptr %77, align 8
  %79 = load ptr, ptr %3, align 8
  %80 = getelementptr inbounds %struct.GLNVGcontext, ptr %79, i32 0, i32 3
  %81 = load i32, ptr %80, align 8
  %82 = add nsw i32 %81, 1
  store i32 %82, ptr %80, align 8
  %83 = sext i32 %81 to i64
  %84 = getelementptr inbounds %struct.GLNVGtexture, ptr %78, i64 %83
  store ptr %84, ptr %4, align 8
  br label %85

85:                                               ; preds = %75, %35
  %86 = load ptr, ptr %4, align 8
  call void @llvm.memset.p0.i64(ptr align 4 %86, i8 0, i64 24, i1 false)
  %87 = load ptr, ptr %3, align 8
  %88 = getelementptr inbounds %struct.GLNVGcontext, ptr %87, i32 0, i32 5
  %89 = load i32, ptr %88, align 8
  %90 = add nsw i32 %89, 1
  store i32 %90, ptr %88, align 8
  %91 = load ptr, ptr %4, align 8
  %92 = getelementptr inbounds %struct.GLNVGtexture, ptr %91, i32 0, i32 0
  store i32 %90, ptr %92, align 4
  %93 = load ptr, ptr %4, align 8
  store ptr %93, ptr %2, align 8
  br label %94

94:                                               ; preds = %85, %67
  %95 = load ptr, ptr %2, align 8
  ret ptr %95
}

; Function Attrs: mustprogress uwtable
define internal noundef i32 @_ZL26glnvg__renderCreateTexturePviiiiPKh(ptr noundef %0, i32 noundef %1, i32 noundef %2, i32 noundef %3, i32 noundef %4, ptr noundef %5) #4 {
  %7 = alloca i32, align 4
  %8 = alloca ptr, align 8
  %9 = alloca i32, align 4
  %10 = alloca i32, align 4
  %11 = alloca i32, align 4
  %12 = alloca i32, align 4
  %13 = alloca ptr, align 8
  %14 = alloca ptr, align 8
  %15 = alloca ptr, align 8
  store ptr %0, ptr %8, align 8
  store i32 %1, ptr %9, align 4
  store i32 %2, ptr %10, align 4
  store i32 %3, ptr %11, align 4
  store i32 %4, ptr %12, align 4
  store ptr %5, ptr %13, align 8
  %16 = load ptr, ptr %8, align 8
  store ptr %16, ptr %14, align 8
  %17 = load ptr, ptr %14, align 8
  %18 = call noundef ptr @_ZL19glnvg__allocTextureP12GLNVGcontext(ptr noundef %17)
  store ptr %18, ptr %15, align 8
  %19 = load ptr, ptr %15, align 8
  %20 = icmp eq ptr %19, null
  br i1 %20, label %21, label %22

21:                                               ; preds = %6
  store i32 0, ptr %7, align 4
  br label %101

22:                                               ; preds = %6
  %23 = load ptr, ptr %15, align 8
  %24 = getelementptr inbounds %struct.GLNVGtexture, ptr %23, i32 0, i32 1
  call void @glGenTextures(i32 noundef 1, ptr noundef %24)
  %25 = load i32, ptr %10, align 4
  %26 = load ptr, ptr %15, align 8
  %27 = getelementptr inbounds %struct.GLNVGtexture, ptr %26, i32 0, i32 2
  store i32 %25, ptr %27, align 4
  %28 = load i32, ptr %11, align 4
  %29 = load ptr, ptr %15, align 8
  %30 = getelementptr inbounds %struct.GLNVGtexture, ptr %29, i32 0, i32 3
  store i32 %28, ptr %30, align 4
  %31 = load i32, ptr %9, align 4
  %32 = load ptr, ptr %15, align 8
  %33 = getelementptr inbounds %struct.GLNVGtexture, ptr %32, i32 0, i32 4
  store i32 %31, ptr %33, align 4
  %34 = load i32, ptr %12, align 4
  %35 = load ptr, ptr %15, align 8
  %36 = getelementptr inbounds %struct.GLNVGtexture, ptr %35, i32 0, i32 5
  store i32 %34, ptr %36, align 4
  %37 = load ptr, ptr %14, align 8
  %38 = load ptr, ptr %15, align 8
  %39 = getelementptr inbounds %struct.GLNVGtexture, ptr %38, i32 0, i32 1
  %40 = load i32, ptr %39, align 4
  call void @_ZL18glnvg__bindTextureP12GLNVGcontextj(ptr noundef %37, i32 noundef %40)
  call void @glPixelStorei(i32 noundef 3317, i32 noundef 1)
  %41 = load ptr, ptr %15, align 8
  %42 = getelementptr inbounds %struct.GLNVGtexture, ptr %41, i32 0, i32 2
  %43 = load i32, ptr %42, align 4
  call void @glPixelStorei(i32 noundef 3314, i32 noundef %43)
  call void @glPixelStorei(i32 noundef 3316, i32 noundef 0)
  call void @glPixelStorei(i32 noundef 3315, i32 noundef 0)
  %44 = load i32, ptr %9, align 4
  %45 = icmp eq i32 %44, 2
  br i1 %45, label %46, label %50

46:                                               ; preds = %22
  %47 = load i32, ptr %10, align 4
  %48 = load i32, ptr %11, align 4
  %49 = load ptr, ptr %13, align 8
  call void @glTexImage2D(i32 noundef 3553, i32 noundef 0, i32 noundef 6408, i32 noundef %47, i32 noundef %48, i32 noundef 0, i32 noundef 6408, i32 noundef 5121, ptr noundef %49)
  br label %54

50:                                               ; preds = %22
  %51 = load i32, ptr %10, align 4
  %52 = load i32, ptr %11, align 4
  %53 = load ptr, ptr %13, align 8
  call void @glTexImage2D(i32 noundef 3553, i32 noundef 0, i32 noundef 6403, i32 noundef %51, i32 noundef %52, i32 noundef 0, i32 noundef 6403, i32 noundef 5121, ptr noundef %53)
  br label %54

54:                                               ; preds = %50, %46
  %55 = load i32, ptr %12, align 4
  %56 = and i32 %55, 1
  %57 = icmp ne i32 %56, 0
  br i1 %57, label %58, label %65

58:                                               ; preds = %54
  %59 = load i32, ptr %12, align 4
  %60 = and i32 %59, 32
  %61 = icmp ne i32 %60, 0
  br i1 %61, label %62, label %63

62:                                               ; preds = %58
  call void @glTexParameteri(i32 noundef 3553, i32 noundef 10241, i32 noundef 9984)
  br label %64

63:                                               ; preds = %58
  call void @glTexParameteri(i32 noundef 3553, i32 noundef 10241, i32 noundef 9987)
  br label %64

64:                                               ; preds = %63, %62
  br label %72

65:                                               ; preds = %54
  %66 = load i32, ptr %12, align 4
  %67 = and i32 %66, 32
  %68 = icmp ne i32 %67, 0
  br i1 %68, label %69, label %70

69:                                               ; preds = %65
  call void @glTexParameteri(i32 noundef 3553, i32 noundef 10241, i32 noundef 9728)
  br label %71

70:                                               ; preds = %65
  call void @glTexParameteri(i32 noundef 3553, i32 noundef 10241, i32 noundef 9729)
  br label %71

71:                                               ; preds = %70, %69
  br label %72

72:                                               ; preds = %71, %64
  %73 = load i32, ptr %12, align 4
  %74 = and i32 %73, 32
  %75 = icmp ne i32 %74, 0
  br i1 %75, label %76, label %77

76:                                               ; preds = %72
  call void @glTexParameteri(i32 noundef 3553, i32 noundef 10240, i32 noundef 9728)
  br label %78

77:                                               ; preds = %72
  call void @glTexParameteri(i32 noundef 3553, i32 noundef 10240, i32 noundef 9729)
  br label %78

78:                                               ; preds = %77, %76
  %79 = load i32, ptr %12, align 4
  %80 = and i32 %79, 2
  %81 = icmp ne i32 %80, 0
  br i1 %81, label %82, label %83

82:                                               ; preds = %78
  call void @glTexParameteri(i32 noundef 3553, i32 noundef 10242, i32 noundef 10497)
  br label %84

83:                                               ; preds = %78
  call void @glTexParameteri(i32 noundef 3553, i32 noundef 10242, i32 noundef 33071)
  br label %84

84:                                               ; preds = %83, %82
  %85 = load i32, ptr %12, align 4
  %86 = and i32 %85, 4
  %87 = icmp ne i32 %86, 0
  br i1 %87, label %88, label %89

88:                                               ; preds = %84
  call void @glTexParameteri(i32 noundef 3553, i32 noundef 10243, i32 noundef 10497)
  br label %90

89:                                               ; preds = %84
  call void @glTexParameteri(i32 noundef 3553, i32 noundef 10243, i32 noundef 33071)
  br label %90

90:                                               ; preds = %89, %88
  call void @glPixelStorei(i32 noundef 3317, i32 noundef 4)
  call void @glPixelStorei(i32 noundef 3314, i32 noundef 0)
  call void @glPixelStorei(i32 noundef 3316, i32 noundef 0)
  call void @glPixelStorei(i32 noundef 3315, i32 noundef 0)
  %91 = load i32, ptr %12, align 4
  %92 = and i32 %91, 1
  %93 = icmp ne i32 %92, 0
  br i1 %93, label %94, label %95

94:                                               ; preds = %90
  call void @glGenerateMipmap(i32 noundef 3553)
  br label %95

95:                                               ; preds = %94, %90
  %96 = load ptr, ptr %14, align 8
  call void @_ZL17glnvg__checkErrorP12GLNVGcontextPKc(ptr noundef %96, ptr noundef @.str.28)
  %97 = load ptr, ptr %14, align 8
  call void @_ZL18glnvg__bindTextureP12GLNVGcontextj(ptr noundef %97, i32 noundef 0)
  %98 = load ptr, ptr %15, align 8
  %99 = getelementptr inbounds %struct.GLNVGtexture, ptr %98, i32 0, i32 0
  %100 = load i32, ptr %99, align 4
  store i32 %100, ptr %7, align 4
  br label %101

101:                                              ; preds = %95, %21
  %102 = load i32, ptr %7, align 4
  ret i32 %102
}