; Function Attrs: mustprogress uwtable
define internal noundef i32 @_ZL26glnvg__renderCreateTexturePviiiiPKh(ptr nocapture noundef %0, i32 noundef %1, i32 noundef %2, i32 noundef %3, i32 noundef %4, ptr noundef %5) #3 {
  %7 = getelementptr inbounds i8, ptr %0, i64 40
  %8 = load i32, ptr %7, align 8
  %9 = icmp sgt i32 %8, 0
  br i1 %9, label %.lr.ph.i, label %._crit_edge.i

.lr.ph.i:                                         ; preds = %6
  %10 = getelementptr inbounds i8, ptr %0, i64 24
  %11 = load ptr, ptr %10, align 8
  %wide.trip.count.i = zext nneg i32 %8 to i64
  br label %13

12:                                               ; preds = %13
  %indvars.iv.next.i = add nuw nsw i64 %indvars.iv.i, 1
  %exitcond.not.i = icmp eq i64 %indvars.iv.next.i, %wide.trip.count.i
  br i1 %exitcond.not.i, label %._crit_edge.i, label %13, !llvm.loop !5

13:                                               ; preds = %12, %.lr.ph.i
  %indvars.iv.i = phi i64 [ 0, %.lr.ph.i ], [ %indvars.iv.next.i, %12 ]
  %14 = getelementptr inbounds %struct.GLNVGtexture, ptr %11, i64 %indvars.iv.i
  %15 = load i32, ptr %14, align 4
  %16 = icmp eq i32 %15, 0
  br i1 %16, label %_ZL19glnvg__allocTextureP12GLNVGcontext.exit, label %12

._crit_edge.i:                                    ; preds = %12, %6
  %17 = getelementptr inbounds i8, ptr %0, i64 44
  %18 = load i32, ptr %17, align 4
  %.not.i = icmp slt i32 %8, %18
  br i1 %.not.i, label %._crit_edge._crit_edge.i, label %19

._crit_edge._crit_edge.i:                         ; preds = %._crit_edge.i
  %.phi.trans.insert.i = getelementptr inbounds i8, ptr %0, i64 24
  %.pre.i = load ptr, ptr %.phi.trans.insert.i, align 8
  br label %31

19:                                               ; preds = %._crit_edge.i
  %20 = tail call i32 @llvm.smax.i32(i32 %8, i32 3)
  %21 = add nuw nsw i32 %20, 1
  %22 = sdiv i32 %18, 2
  %23 = add nsw i32 %21, %22
  %24 = getelementptr inbounds i8, ptr %0, i64 24
  %25 = load ptr, ptr %24, align 8
  %26 = sext i32 %23 to i64
  %27 = mul nsw i64 %26, 24
  %28 = tail call ptr @realloc(ptr noundef %25, i64 noundef %27) #29
  %29 = icmp eq ptr %28, null
  br i1 %29, label %_ZL19glnvg__allocTextureP12GLNVGcontext.exit.thread, label %30

30:                                               ; preds = %19
  store ptr %28, ptr %24, align 8
  store i32 %23, ptr %17, align 4
  %.pre37.i = load i32, ptr %7, align 8
  br label %31

31:                                               ; preds = %30, %._crit_edge._crit_edge.i
  %32 = phi i32 [ %8, %._crit_edge._crit_edge.i ], [ %.pre37.i, %30 ]
  %33 = phi ptr [ %.pre.i, %._crit_edge._crit_edge.i ], [ %28, %30 ]
  %34 = add nsw i32 %32, 1
  store i32 %34, ptr %7, align 8
  %35 = sext i32 %32 to i64
  %36 = getelementptr inbounds %struct.GLNVGtexture, ptr %33, i64 %35
  br label %_ZL19glnvg__allocTextureP12GLNVGcontext.exit

_ZL19glnvg__allocTextureP12GLNVGcontext.exit:     ; preds = %13, %31
  %.1.i = phi ptr [ %36, %31 ], [ %14, %13 ]
  tail call void @llvm.memset.p0.i64(ptr noundef nonnull align 4 dereferenceable(24) %.1.i, i8 0, i64 24, i1 false)
  %37 = getelementptr inbounds i8, ptr %0, i64 48
  %38 = load i32, ptr %37, align 8
  %39 = add nsw i32 %38, 1
  store i32 %39, ptr %37, align 8
  store i32 %39, ptr %.1.i, align 4
  %40 = getelementptr inbounds i8, ptr %.1.i, i64 4
  tail call void @glGenTextures(i32 noundef 1, ptr noundef nonnull %40)
  %41 = getelementptr inbounds i8, ptr %.1.i, i64 8
  store i32 %2, ptr %41, align 4
  %42 = getelementptr inbounds i8, ptr %.1.i, i64 12
  store i32 %3, ptr %42, align 4
  %43 = getelementptr inbounds i8, ptr %.1.i, i64 16
  store i32 %1, ptr %43, align 4
  %44 = getelementptr inbounds i8, ptr %.1.i, i64 20
  store i32 %4, ptr %44, align 4
  %45 = load i32, ptr %40, align 4
  %46 = getelementptr inbounds i8, ptr %0, i64 136
  %47 = load i32, ptr %46, align 8
  %.not.i38 = icmp eq i32 %47, %45
  br i1 %.not.i38, label %_ZL18glnvg__bindTextureP12GLNVGcontextj.exit, label %48

48:                                               ; preds = %_ZL19glnvg__allocTextureP12GLNVGcontext.exit
  store i32 %45, ptr %46, align 8
  tail call void @glBindTexture(i32 noundef 3553, i32 noundef %45)
  br label %_ZL18glnvg__bindTextureP12GLNVGcontextj.exit

_ZL18glnvg__bindTextureP12GLNVGcontextj.exit:     ; preds = %_ZL19glnvg__allocTextureP12GLNVGcontext.exit, %48
  tail call void @glPixelStorei(i32 noundef 3317, i32 noundef 1)
  %49 = load i32, ptr %41, align 4
  tail call void @glPixelStorei(i32 noundef 3314, i32 noundef %49)
  tail call void @glPixelStorei(i32 noundef 3316, i32 noundef 0)
  tail call void @glPixelStorei(i32 noundef 3315, i32 noundef 0)
  %50 = icmp eq i32 %1, 2
  br i1 %50, label %51, label %52

51:                                               ; preds = %_ZL18glnvg__bindTextureP12GLNVGcontextj.exit
  tail call void @glTexImage2D(i32 noundef 3553, i32 noundef 0, i32 noundef 6408, i32 noundef %2, i32 noundef %3, i32 noundef 0, i32 noundef 6408, i32 noundef 5121, ptr noundef %5)
  br label %53

52:                                               ; preds = %_ZL18glnvg__bindTextureP12GLNVGcontextj.exit
  tail call void @glTexImage2D(i32 noundef 3553, i32 noundef 0, i32 noundef 6403, i32 noundef %2, i32 noundef %3, i32 noundef 0, i32 noundef 6403, i32 noundef 5121, ptr noundef %5)
  br label %53

53:                                               ; preds = %52, %51
  %54 = and i32 %4, 1
  %.not = icmp eq i32 %54, 0
  %55 = and i32 %4, 32
  %.not33 = icmp eq i32 %55, 0
  %.51 = select i1 %.not, i32 9729, i32 9987
  %.52 = select i1 %.not, i32 9728, i32 9984
  %.sink47.sink = select i1 %.not33, i32 %.51, i32 %.52
  %.sink48 = select i1 %.not33, i32 9729, i32 9728
  tail call void @glTexParameteri(i32 noundef 3553, i32 noundef 10241, i32 noundef %.sink47.sink)
  tail call void @glTexParameteri(i32 noundef 3553, i32 noundef 10240, i32 noundef %.sink48)
  %56 = and i32 %4, 2
  %.not36 = icmp eq i32 %56, 0
  %. = select i1 %.not36, i32 33071, i32 10497
  tail call void @glTexParameteri(i32 noundef 3553, i32 noundef 10242, i32 noundef %.)
  %57 = and i32 %4, 4
  %.not37 = icmp eq i32 %57, 0
  %.sink50 = select i1 %.not37, i32 33071, i32 10497
  tail call void @glTexParameteri(i32 noundef 3553, i32 noundef 10243, i32 noundef %.sink50)
  tail call void @glPixelStorei(i32 noundef 3317, i32 noundef 4)
  tail call void @glPixelStorei(i32 noundef 3314, i32 noundef 0)
  tail call void @glPixelStorei(i32 noundef 3316, i32 noundef 0)
  tail call void @glPixelStorei(i32 noundef 3315, i32 noundef 0)
  br i1 %.not, label %59, label %58

58:                                               ; preds = %53
  tail call void @glGenerateMipmap(i32 noundef 3553)
  br label %59

59:                                               ; preds = %58, %53
  %60 = getelementptr i8, ptr %0, i64 68
  %.val = load i32, ptr %60, align 4
  %61 = and i32 %.val, 4
  %62 = icmp eq i32 %61, 0
  br i1 %62, label %_ZL17glnvg__checkErrorP12GLNVGcontextPKc.exit, label %63

63:                                               ; preds = %59
  %64 = tail call i32 @glGetError()
  %.not.i39 = icmp eq i32 %64, 0
  br i1 %.not.i39, label %_ZL17glnvg__checkErrorP12GLNVGcontextPKc.exit, label %65

65:                                               ; preds = %63
  %66 = tail call i32 (ptr, ...) @printf(ptr noundef nonnull dereferenceable(1) @.str.18, i32 noundef %64, ptr noundef nonnull @.str.28)
  br label %_ZL17glnvg__checkErrorP12GLNVGcontextPKc.exit

_ZL17glnvg__checkErrorP12GLNVGcontextPKc.exit:    ; preds = %59, %63, %65
  %67 = load i32, ptr %46, align 8
  %.not.i40 = icmp eq i32 %67, 0
  br i1 %.not.i40, label %_ZL18glnvg__bindTextureP12GLNVGcontextj.exit41, label %68

68:                                               ; preds = %_ZL17glnvg__checkErrorP12GLNVGcontextPKc.exit
  store i32 0, ptr %46, align 8
  tail call void @glBindTexture(i32 noundef 3553, i32 noundef 0)
  br label %_ZL18glnvg__bindTextureP12GLNVGcontextj.exit41

_ZL18glnvg__bindTextureP12GLNVGcontextj.exit41:   ; preds = %_ZL17glnvg__checkErrorP12GLNVGcontextPKc.exit, %68
  %69 = load i32, ptr %.1.i, align 4
  br label %_ZL19glnvg__allocTextureP12GLNVGcontext.exit.thread

_ZL19glnvg__allocTextureP12GLNVGcontext.exit.thread: ; preds = %19, %_ZL18glnvg__bindTextureP12GLNVGcontextj.exit41
  %.0 = phi i32 [ %69, %_ZL18glnvg__bindTextureP12GLNVGcontextj.exit41 ], [ 0, %19 ]
  ret i32 %.0
}